; Function Attrs: mustprogress uwtable
define dso_local noundef range(i32 -1, 1) i32 @_ZN24btInverseDynamicsBullet313MultiBodyTree13MultiBodyImpl13addUserMomentEiRKNS_4vec3E(ptr noundef nonnull readonly align 8 captures(none) dereferenceable(400) %0, i32 noundef %1, ptr noundef nonnull readonly align 4 captures(none) dereferenceable(16) %2) local_unnamed_addr #0 align 2 {
  %4 = icmp sgt i32 %1, -1
  %5 = load i32, ptr %0, align 8
  %.not = icmp slt i32 %1, %5
  %or.cond = select i1 %4, i1 %.not, i1 false
  br i1 %or.cond, label %8, label %6

6:                                                ; preds = %3
  tail call void (ptr, ...) @b3OutputErrorMessageVarArgsInternal(ptr noundef nonnull @.str.16, ptr noundef nonnull @.str.17, i32 noundef 1247)
  %7 = load i32, ptr %0, align 8, !tbaa !4
  tail call void (ptr, ...) @b3OutputErrorMessageVarArgsInternal(ptr noundef nonnull @.str.30, i32 noundef %1, i32 noundef %7)
  br label %26

8:                                                ; preds = %3
  %9 = getelementptr inbounds nuw i8, ptr %0, i64 40
  %10 = load ptr, ptr %9, align 8, !tbaa !34
  %11 = zext nneg i32 %1 to i64
  %12 = getelementptr inbounds nuw %"struct.btInverseDynamicsBullet3::RigidBody", ptr %10, i64 %11, i32 8
  %13 = load float, ptr %2, align 4, !tbaa !62
  %14 = load float, ptr %12, align 4, !tbaa !62
  %15 = fadd float %13, %14
  store float %15, ptr %12, align 4, !tbaa !62
  %16 = getelementptr inbounds nuw i8, ptr %2, i64 4
  %17 = load float, ptr %16, align 4, !tbaa !62
  %18 = getelementptr inbounds nuw i8, ptr %12, i64 4
  %19 = load float, ptr %18, align 4, !tbaa !62
  %20 = fadd float %17, %19
  store float %20, ptr %18, align 4, !tbaa !62
  %21 = getelementptr inbounds nuw i8, ptr %2, i64 8
  %22 = load float, ptr %21, align 4, !tbaa !62
  %23 = getelementptr inbounds nuw i8, ptr %12, i64 8
  %24 = load float, ptr %23, align 4, !tbaa !62
  %25 = fadd float %22, %24
  store float %25, ptr %23, align 4, !tbaa !62
  br label %26

26:                                               ; preds = %8, %6
  %.0 = phi i32 [ -1, %6 ], [ 0, %8 ]
  ret i32 %.0
}